; Function Attrs: mustprogress nofree norecurse nosync nounwind willreturn memory(argmem: readwrite) uwtable
define internal noundef signext i8 @_ZL12isAcceptablePvPKcS1_PK9UDataInfo(ptr nocapture noundef writeonly %context, ptr nocapture readnone %0, ptr nocapture readnone %1, ptr nocapture noundef readonly %pInfo) #2 {
entry:
  %formatVersion = getelementptr inbounds i8, ptr %pInfo, i64 12
  %2 = load i32, ptr %formatVersion, align 2
  store i32 %2, ptr %context, align 1
  %3 = load i16, ptr %pInfo, align 2
  %cmp = icmp ugt i16 %3, 19
  br i1 %cmp, label %land.lhs.true, label %land.end37

land.lhs.true:                                    ; preds = %entry
  %isBigEndian = getelementptr inbounds i8, ptr %pInfo, i64 4
  %4 = load i8, ptr %isBigEndian, align 2
  %cmp3 = icmp eq i8 %4, 0
  br i1 %cmp3, label %land.lhs.true4, label %land.end37

land.lhs.true4:                                   ; preds = %land.lhs.true
  %charsetFamily = getelementptr inbounds i8, ptr %pInfo, i64 5
  %5 = load i8, ptr %charsetFamily, align 1
  %cmp6 = icmp eq i8 %5, 0
  br i1 %cmp6, label %land.lhs.true7, label %land.end37

land.lhs.true7:                                   ; preds = %land.lhs.true4
  %sizeofUChar = getelementptr inbounds i8, ptr %pInfo, i64 6
  %6 = load i8, ptr %sizeofUChar, align 2
  %cmp9 = icmp eq i8 %6, 2
  br i1 %cmp9, label %land.lhs.true10, label %land.end37

land.lhs.true10:                                  ; preds = %land.lhs.true7
  %dataFormat = getelementptr inbounds i8, ptr %pInfo, i64 8
  %7 = load i8, ptr %dataFormat, align 2
  %cmp12 = icmp eq i8 %7, 82
  br i1 %cmp12, label %land.lhs.true13, label %land.end37

land.lhs.true13:                                  ; preds = %land.lhs.true10
  %arrayidx15 = getelementptr inbounds i8, ptr %pInfo, i64 9
  %8 = load i8, ptr %arrayidx15, align 1
  %cmp17 = icmp eq i8 %8, 101
  br i1 %cmp17, label %land.lhs.true18, label %land.end37

land.lhs.true18:                                  ; preds = %land.lhs.true13
  %arrayidx20 = getelementptr inbounds i8, ptr %pInfo, i64 10
  %9 = load i8, ptr %arrayidx20, align 2
  %cmp22 = icmp eq i8 %9, 115
  br i1 %cmp22, label %land.lhs.true23, label %land.end37

land.lhs.true23:                                  ; preds = %land.lhs.true18
  %arrayidx25 = getelementptr inbounds i8, ptr %pInfo, i64 11
  %10 = load i8, ptr %arrayidx25, align 1
  %cmp27 = icmp eq i8 %10, 66
  br i1 %cmp27, label %land.rhs, label %land.end37

land.rhs:                                         ; preds = %land.lhs.true23
  %11 = load i8, ptr %formatVersion, align 2
  %cmp31.not = icmp eq i8 %11, 0
  br i1 %cmp31.not, label %land.end37, label %land.rhs32

land.rhs32:                                       ; preds = %land.rhs
  %cmp36 = icmp ult i8 %11, 4
  %12 = zext i1 %cmp36 to i8
  br label %land.end37

land.end37:                                       ; preds = %land.rhs, %land.rhs32, %land.lhs.true23, %land.lhs.true18, %land.lhs.true13, %land.lhs.true10, %land.lhs.true7, %land.lhs.true4, %land.lhs.true, %entry
  %conv38 = phi i8 [ 0, %land.lhs.true23 ], [ 0, %land.lhs.true18 ], [ 0, %land.lhs.true13 ], [ 0, %land.lhs.true10 ], [ 0, %land.lhs.true7 ], [ 0, %land.lhs.true4 ], [ 0, %land.lhs.true ], [ 0, %entry ], [ 0, %land.rhs ], [ %12, %land.rhs32 ]
  ret i8 %conv38
}